; Function Attrs: nounwind uwtable
define range(i32 0, 2) i32 @Cba_NtkCheckComboLoop_rec(ptr noundef captures(none) %0, i32 noundef %1) local_unnamed_addr #1 {
  %3 = getelementptr i8, ptr %0, i64 96
  %.val = load ptr, ptr %3, align 8
  %4 = sext i32 %1 to i64
  %5 = getelementptr inbounds i8, ptr %.val, i64 %4
  %6 = load i8, ptr %5, align 1
  %.not = icmp eq i8 %6, 1
  br i1 %.not, label %.loopexit, label %7

7:                                                ; preds = %2
  %8 = getelementptr inbounds nuw i8, ptr %0, i64 168
  %9 = add nsw i32 %1, 1
  tail call fastcc void @Vec_IntFillExtra(ptr noundef nonnull %8, i32 noundef %9, i32 noundef -1)
  %10 = getelementptr i8, ptr %0, i64 176
  %.val.i.i = load ptr, ptr %10, align 8
  %11 = getelementptr inbounds i32, ptr %.val.i.i, i64 %4
  %12 = load i32, ptr %11, align 4
  %13 = icmp eq i32 %12, 1
  br i1 %13, label %.loopexit, label %14

14:                                               ; preds = %7
  tail call fastcc void @Vec_IntFillExtra(ptr noundef nonnull %8, i32 noundef %9, i32 noundef -1)
  %.val.i.i34 = load ptr, ptr %10, align 8
  %15 = getelementptr inbounds i32, ptr %.val.i.i34, i64 %4
  %16 = load i32, ptr %15, align 4
  %17 = icmp eq i32 %16, 0
  br i1 %17, label %.loopexit, label %18

18:                                               ; preds = %14
  tail call fastcc void @Vec_IntFillExtra(ptr noundef nonnull %8, i32 noundef %9, i32 noundef 0)
  %.val.i.i35 = load ptr, ptr %10, align 8
  %19 = getelementptr inbounds i32, ptr %.val.i.i35, i64 %4
  store i32 0, ptr %19, align 4
  %20 = getelementptr i8, ptr %0, i64 112
  %.val32 = load ptr, ptr %20, align 8
  %21 = getelementptr inbounds i32, ptr %.val32, i64 %4
  %22 = load i32, ptr %21, align 4
  %23 = sext i32 %9 to i64
  %24 = getelementptr inbounds i32, ptr %.val32, i64 %23
  %25 = load i32, ptr %24, align 4
  %26 = icmp slt i32 %22, %25
  br i1 %26, label %.lr.ph, label %.critedge

.lr.ph:                                           ; preds = %18
  %27 = getelementptr i8, ptr %0, i64 144
  %28 = getelementptr i8, ptr %0, i64 160
  %29 = getelementptr i8, ptr %0, i64 188
  %30 = getelementptr inbounds nuw i8, ptr %0, i64 184
  %31 = getelementptr i8, ptr %0, i64 192
  %32 = sext i32 %22 to i64
  br label %33

33:                                               ; preds = %.lr.ph, %Cba_FonObj.exit.thread
  %indvars.iv = phi i64 [ %32, %.lr.ph ], [ %indvars.iv.next, %Cba_FonObj.exit.thread ]
  %.val33 = load ptr, ptr %27, align 8
  %34 = getelementptr inbounds i32, ptr %.val33, i64 %indvars.iv
  %35 = load i32, ptr %34, align 4
  %36 = icmp slt i32 %35, 1
  br i1 %36, label %Cba_FonObj.exit.thread, label %Cba_FonObj.exit

Cba_FonObj.exit:                                  ; preds = %33
  %.val.i = load ptr, ptr %28, align 8
  %37 = zext nneg i32 %35 to i64
  %38 = getelementptr inbounds nuw i32, ptr %.val.i, i64 %37
  %39 = load i32, ptr %38, align 4
  %.not28 = icmp eq i32 %39, 0
  br i1 %.not28, label %Cba_FonObj.exit.thread, label %40

40:                                               ; preds = %Cba_FonObj.exit
  %.val5.i = load ptr, ptr %3, align 8
  %41 = sext i32 %39 to i64
  %42 = getelementptr inbounds i8, ptr %.val5.i, i64 %41
  %43 = load i8, ptr %42, align 1
  %44 = icmp eq i8 %43, 3
  br i1 %44, label %Cba_ObjNtkId.exit.i.i, label %Cba_ObjIsSeq.exit

Cba_ObjNtkId.exit.i.i:                            ; preds = %40
  %.val5.i.i.i = load i32, ptr %29, align 4
  %45 = icmp sgt i32 %.val5.i.i.i, 0
  tail call void @llvm.assume(i1 %45)
  %46 = add nsw i32 %39, 1
  tail call fastcc void @Vec_IntFillExtra(ptr noundef nonnull %30, i32 noundef %46, i32 noundef 0)
  %.val.i.i.i.i.i = load ptr, ptr %31, align 8
  %47 = getelementptr inbounds i32, ptr %.val.i.i.i.i.i, i64 %41
  %48 = load i32, ptr %47, align 4
  %.val.i.i36 = load ptr, ptr %0, align 8
  %49 = icmp sgt i32 %48, 0
  tail call void @llvm.assume(i1 %49)
  %50 = getelementptr i8, ptr %.val.i.i36, i64 1564
  %.val.i.i.i2.i.i = load i32, ptr %50, align 4
  %.not.i.i.i.i = icmp slt i32 %48, %.val.i.i.i2.i.i
  tail call void @llvm.assume(i1 %.not.i.i.i.i)
  %51 = getelementptr i8, ptr %.val.i.i36, i64 1568
  %.val.i.i.i.i = load ptr, ptr %51, align 8
  %52 = zext nneg i32 %48 to i64
  %53 = getelementptr inbounds nuw ptr, ptr %.val.i.i.i.i, i64 %52
  %54 = load ptr, ptr %53, align 8
  %55 = getelementptr inbounds nuw i8, ptr %54, i64 20
  %56 = load i8, ptr %55, align 4
  %57 = and i8 %56, 4
  %58 = icmp eq i8 %57, 0
  br i1 %58, label %61, label %Cba_FonObj.exit.thread

Cba_ObjIsSeq.exit:                                ; preds = %40
  %59 = add i8 %43, -88
  %60 = icmp ult i8 %59, -12
  br i1 %60, label %61, label %Cba_FonObj.exit.thread

61:                                               ; preds = %Cba_ObjNtkId.exit.i.i, %Cba_ObjIsSeq.exit
  %62 = tail call i32 @Cba_NtkCheckComboLoop_rec(ptr noundef nonnull %0, i32 noundef %39)
  %.not30 = icmp eq i32 %62, 0
  br i1 %.not30, label %.loopexit, label %Cba_FonObj.exit.thread

Cba_FonObj.exit.thread:                           ; preds = %Cba_ObjNtkId.exit.i.i, %33, %Cba_FonObj.exit, %61, %Cba_ObjIsSeq.exit
  %indvars.iv.next = add nsw i64 %indvars.iv, 1
  %.val31 = load ptr, ptr %20, align 8
  %63 = getelementptr inbounds i32, ptr %.val31, i64 %23
  %64 = load i32, ptr %63, align 4
  %65 = sext i32 %64 to i64
  %66 = icmp slt i64 %indvars.iv.next, %65
  br i1 %66, label %33, label %.critedge, !llvm.loop !42

.critedge:                                        ; preds = %Cba_FonObj.exit.thread, %18
  tail call fastcc void @Vec_IntFillExtra(ptr noundef nonnull %8, i32 noundef %9, i32 noundef 0)
  %.val.i37 = load ptr, ptr %10, align 8
  %67 = getelementptr inbounds i32, ptr %.val.i37, i64 %4
  store i32 1, ptr %67, align 4
  br label %.loopexit

.loopexit:                                        ; preds = %61, %14, %7, %2, %.critedge
  %.0 = phi i32 [ 1, %.critedge ], [ 1, %2 ], [ 1, %7 ], [ 0, %14 ], [ 0, %61 ]
  ret i32 %.0
}